(dp0
S'METTS MARK'
p1
(dp2
S'to_messages'
p3
I807
sS'deferral_payments'
p4
I0
sS'expenses'
p5
I94299
sS'poi'
p6
I00
sS'long_term_incentive'
p7
I0
sS'email_address'
p8
S'mark.metts@enron.com'
p9
sS'from_poi_to_this_person'
p10
I38
sS'deferred_income'
p11
I0
sS'fraction_from_poi'
p12
F0.04708798017348203
sS'restricted_stock_deferred'
p13
I0
sS'shared_receipt_with_poi'
p14
F702.0
sS'loan_advances'
p15
I0
sS'from_messages'
p16
I29
sS'other'
p17
I1740
sS'director_fees'
p18
I0
sS'bonus'
p19
I600000
sS'total_stock_value'
p20
I585062
sS'from_this_person_to_poi'
p21
I1
sS'restricted_stock'
p22
I585062
sS'salary'
p23
I365788
sS'total_payments'
p24
I1061827
sS'fraction_to_poi'
p25
F0.034482758620689655
sS'exercised_stock_options'
p26
I0
ssS'BAXTER JOHN C'
p27
(dp28
g3
S'NaN'
p29
sg4
I1295738
sg5
I11200
sg6
I00
sg7
I1586055
sg8
g29
sg10
g29
sg11
I-1386055
sg12
F0.0
sg13
I0
sg14
F594.0
sg15
I0
sg16
g29
sg17
I2660303
sg18
I0
sg19
I1200000
sg20
I10623258
sg21
g29
sg22
I3942714
sg23
I267102
sg24
I5634343
sg25
F0.0
sg26
I6680544
ssS'ELLIOTT STEVEN'
p30
(dp31
g3
g29
sg4
I0
sg5
I78552
sg6
I00
sg7
I0
sg8
S'steven.elliott@enron.com'
p32
sg10
g29
sg11
I-400729
sg12
F0.0
sg13
I0
sg14
F594.0
sg15
I0
sg16
g29
sg17
I12961
sg18
I0
sg19
I350000
sg20
I6678735
sg21
g29
sg22
I1788391
sg23
I170941
sg24
I211725
sg25
F0.0
sg26
I4890344
ssS'CORDES WILLIAM R'
p33
(dp34
g3
I764
sg4
I0
sg5
I0
sg6
I00
sg7
I0
sg8
S'bill.cordes@enron.com'
p35
sg10
I10
sg11
I0
sg12
F0.013089005235602094
sg13
I0
sg14
F58.0
sg15
I0
sg16
I12
sg17
I0
sg18
I0
sg19
I0
sg20
I1038185
sg21
I0
sg22
I386335
sg23
I0
sg24
I0
sg25
F0.0
sg26
I651850
ssS'HANNON KEVIN P'
p36
(dp37
g3
I1045
sg4
I0
sg5
I34039
sg6
I01
sg7
I1617011
sg8
S'kevin.hannon@enron.com'
p38
sg10
I32
sg11
I-3117011
sg12
F0.03062200956937799
sg13
I0
sg14
F1035.0
sg15
I0
sg16
I32
sg17
I11350
sg18
I0
sg19
I1500000
sg20
I6391065
sg21
I21
sg22
I853064
sg23
I243293
sg24
I288682
sg25
F0.65625
sg26
I5538001
ssS'MORDAUNT KRISTINA M'
p39
(dp40
g3
g29
sg4
I0
sg5
I35018
sg6
I00
sg7
I0
sg8
S'kristina.mordaunt@enron.com'
p41
sg10
g29
sg11
I0
sg12
F0.0
sg13
I0
sg14
F594.0
sg15
I0
sg16
g29
sg17
I1411
sg18
I0
sg19
I325000
sg20
I208510
sg21
g29
sg22
I208510
sg23
I267093
sg24
I628522
sg25
F0.0
sg26
I0
ssS'MEYER ROCKFORD G'
p42
(dp43
g3
I232
sg4
I1848227
sg5
I0
sg6
I00
sg7
I0
sg8
S'rockford.meyer@enron.com'
p44
sg10
I0
sg11
I0
sg12
F0.0
sg13
I0
sg14
F22.0
sg15
I0
sg16
I28
sg17
I0
sg18
I0
sg19
I0
sg20
I955873
sg21
I0
sg22
I462384
sg23
I0
sg24
I1848227
sg25
F0.0
sg26
I493489
ssS'MCMAHON JEFFREY'
p45
(dp46
g3
I2355
sg4
I0
sg5
I137108
sg6
I00
sg7
I694862
sg8
S'jeffrey.mcmahon@enron.com'
p47
sg10
I58
sg11
I0
sg12
F0.024628450106157114
sg13
I0
sg14
F2228.0
sg15
I0
sg16
I48
sg17
I297353
sg18
I0
sg19
I2600000
sg20
I1662855
sg21
I26
sg22
I558801
sg23
I370448
sg24
I4099771
sg25
F0.5416666666666666
sg26
I1104054
ssS'HAEDICKE MARK E'
p48
(dp49
g3
I4009
sg4
I2157527
sg5
I76169
sg6
I00
sg7
I983346
sg8
S'mark.haedicke@enron.com'
p50
sg10
I180
sg11
I-934484
sg12
F0.04489897730107259
sg13
I-329825
sg14
F1847.0
sg15
I0
sg16
I1941
sg17
I52382
sg18
I0
sg19
I1150000
sg20
I803094
sg21
I61
sg22
I524169
sg23
I374125
sg24
I3859065
sg25
F0.03142709943328181
sg26
I608750
ssS'PIPER GREGORY F'
p51
(dp52
g3
I1238
sg4
I1130036
sg5
I43057
sg6
I00
sg7
I0
sg8
S'greg.piper@enron.com'
p53
sg10
I61
sg11
I-33333
sg12
F0.049273021001615507
sg13
I-409554
sg14
F742.0
sg15
I0
sg16
I222
sg17
I778
sg18
I0
sg19
I400000
sg20
I880290
sg21
I48
sg22
I409554
sg23
I197091
sg24
I1737629
sg25
F0.21621621621621623
sg26
I880290
ssS'HUMPHREY GENE E'
p54
(dp55
g3
I128
sg4
I2964506
sg5
I4994
sg6
I00
sg7
I0
sg8
S'gene.humphrey@enron.com'
p56
sg10
I10
sg11
I0
sg12
F0.078125
sg13
I0
sg14
F119.0
sg15
I0
sg16
I17
sg17
I0
sg18
I0
sg19
I0
sg20
I2282768
sg21
I17
sg22
I0
sg23
I130724
sg24
I3100224
sg25
F1.0
sg26
I2282768
ssS'NOLES JAMES L'
p57
(dp58
g3
g29
sg4
I774401
sg5
I0
sg6
I00
sg7
I0
sg8
g29
sg10
g29
sg11
I0
sg12
F0.0
sg13
I-94556
sg14
F594.0
sg15
I0
sg16
g29
sg17
I0
sg18
I0
sg19
I0
sg20
I368705
sg21
g29
sg22
I463261
sg23
I0
sg24
I774401
sg25
F0.0
sg26
I0
ssS'BLACHMAN JEREMY M'
p59
(dp60
g3
I2475
sg4
I0
sg5
I84208
sg6
I00
sg7
I831809
sg8
S'jeremy.blachman@enron.com'
p61
sg10
I25
sg11
I0
sg12
F0.010101010101010102
sg13
I0
sg14
F2326.0
sg15
I0
sg16
I14
sg17
I272
sg18
I0
sg19
I850000
sg20
I954354
sg21
I2
sg22
I189041
sg23
I248546
sg24
I2014835
sg25
F0.14285714285714285
sg26
I765313
ssS'SUNDE MARTIN'
p62
(dp63
g3
I2647
sg4
I0
sg5
I0
sg6
I00
sg7
I476451
sg8
S'marty.sunde@enron.com'
p64
sg10
I37
sg11
I0
sg12
F0.013978088401964487
sg13
I0
sg14
F2565.0
sg15
I0
sg16
I38
sg17
I111122
sg18
I0
sg19
I700000
sg20
I698920
sg21
I13
sg22
I698920
sg23
I257486
sg24
I1545059
sg25
F0.34210526315789475
sg26
I0
ssS'GIBBS DANA R'
p65
(dp66
g3
I169
sg4
I504610
sg5
I0
sg6
I00
sg7
I461912
sg8
S'dana.gibbs@enron.com'
p67
sg10
I0
sg11
I0
sg12
F0.0
sg13
I0
sg14
F23.0
sg15
I0
sg16
I12
sg17
I0
sg18
I0
sg19
I0
sg20
I2218275
sg21
I0
sg22
I0
sg23
I0
sg24
I966522
sg25
F0.0
sg26
I2218275
ssS'LOWRY CHARLES P'
p68
(dp69
g3
g29
sg4
I0
sg5
I0
sg6
I00
sg7
I0
sg8
g29
sg10
g29
sg11
I0
sg12
F0.0
sg13
I-153686
sg14
F594.0
sg15
I0
sg16
g29
sg17
I0
sg18
I0
sg19
I0
sg20
I372205
sg21
g29
sg22
I153686
sg23
I0
sg24
I0
sg25
F0.0
sg26
I372205
ssS'COLWELL WESLEY'
p70
(dp71
g3
I1758
sg4
I27610
sg5
I16514
sg6
I01
sg7
I0
sg8
S'wes.colwell@enron.com'
p72
sg10
I240
sg11
I-144062
sg12
F0.13651877133105803
sg13
I0
sg14
F1132.0
sg15
I0
sg16
I40
sg17
I101740
sg18
I0
sg19
I1200000
sg20
I698242
sg21
I11
sg22
I698242
sg23
I288542
sg24
I1490344
sg25
F0.275
sg26
I0
ssS'MULLER MARK S'
p73
(dp74
g3
I136
sg4
I842924
sg5
I0
sg6
I00
sg7
I1725545
sg8
S's..muller@enron.com'
p75
sg10
I12
sg11
I-719000
sg12
F0.08823529411764706
sg13
I0
sg14
F114.0
sg15
I0
sg16
I16
sg17
I947
sg18
I0
sg19
I1100000
sg20
I1416848
sg21
I0
sg22
I360528
sg23
I251654
sg24
I3202070
sg25
F0.0
sg26
I1056320
ssS'JACKSON CHARLENE R'
p76
(dp77
g3
I258
sg4
I0
sg5
I10181
sg6
I00
sg7
I0
sg8
S'charlene.jackson@enron.com'
p78
sg10
I25
sg11
I0
sg12
F0.09689922480620156
sg13
I0
sg14
F117.0
sg15
I0
sg16
I56
sg17
I2435
sg18
I0
sg19
I250000
sg20
I725735
sg21
I19
sg22
I540672
sg23
I288558
sg24
I551174
sg25
F0.3392857142857143
sg26
I185063
ssS'WESTFAHL RICHARD K'
p79
(dp80
g3
g29
sg4
I0
sg5
I51870
sg6
I00
sg7
I256191
sg8
S'dick.westfahl@enron.com'
p81
sg10
g29
sg11
I-10800
sg12
F0.0
sg13
I0
sg14
F594.0
sg15
I0
sg16
g29
sg17
I401130
sg18
I0
sg19
I0
sg20
I384930
sg21
g29
sg22
I384930
sg23
I63744
sg24
I762135
sg25
F0.0
sg26
I0
ssS'WALTERS GARETH W'
p82
(dp83
g3
g29
sg4
I53625
sg5
I33785
sg6
I00
sg7
I0
sg8
g29
sg10
g29
sg11
I0
sg12
F0.0
sg13
I0
sg14
F594.0
sg15
I0
sg16
g29
sg17
I0
sg18
I0
sg19
I0
sg20
I1030329
sg21
g29
sg22
I0
sg23
I0
sg24
I87410
sg25
F0.0
sg26
I1030329
ssS'WALLS JR ROBERT H'
p84
(dp85
g3
I671
sg4
I0
sg5
I50936
sg6
I00
sg7
I540751
sg8
S'rob.walls@enron.com'
p86
sg10
I17
sg11
I0
sg12
F0.02533532041728763
sg13
I0
sg14
F215.0
sg15
I0
sg16
I146
sg17
I2
sg18
I0
sg19
I850000
sg20
I5898997
sg21
I0
sg22
I1552453
sg23
I357091
sg24
I1798780
sg25
F0.0
sg26
I4346544
ssS'KITCHEN LOUISE'
p87
(dp88
g3
I8305
sg4
I0
sg5
I5774
sg6
I00
sg7
I0
sg8
S'louise.kitchen@enron.com'
p89
sg10
I251
sg11
I0
sg12
F0.030222757375075255
sg13
I0
sg14
F3669.0
sg15
I0
sg16
I1728
sg17
I93925
sg18
I0
sg19
I3100000
sg20
I547143
sg21
I194
sg22
I466101
sg23
I271442
sg24
I3471141
sg25
F0.11226851851851852
sg26
I81042
ssS'CHAN RONNIE'
p90
(dp91
g3
g29
sg4
I0
sg5
I0
sg6
I00
sg7
I0
sg8
g29
sg10
g29
sg11
I-98784
sg12
F0.0
sg13
I-32460
sg14
F594.0
sg15
I0
sg16
g29
sg17
I0
sg18
I98784
sg19
I0
sg20
I0
sg21
g29
sg22
I32460
sg23
I0
sg24
I0
sg25
F0.0
sg26
I0
ssS'BELFER ROBERT'
p92
(dp93
g3
g29
sg4
I-102500
sg5
I0
sg6
I00
sg7
I0
sg8
g29
sg10
g29
sg11
I0
sg12
F0.0
sg13
I44093
sg14
F594.0
sg15
I0
sg16
g29
sg17
I0
sg18
I3285
sg19
I0
sg20
I-44093
sg21
g29
sg22
I0
sg23
I0
sg24
I102500
sg25
F0.0
sg26
I3285
ssS'SHANKMAN JEFFREY A'
p94
(dp95
g3
I3221
sg4
I0
sg5
I178979
sg6
I00
sg7
I554422
sg8
S'jeffrey.shankman@enron.com'
p96
sg10
I94
sg11
I0
sg12
F0.029183483390251473
sg13
I0
sg14
F1730.0
sg15
I0
sg16
I2681
sg17
I1191
sg18
I0
sg19
I2000000
sg20
I2072035
sg21
I83
sg22
I630137
sg23
I304110
sg24
I3038702
sg25
F0.030958597538232
sg26
I1441898
ssS'WODRASKA JOHN'
p97
(dp98
g3
g29
sg4
I0
sg5
I0
sg6
I00
sg7
I0
sg8
S'john.wodraska@enron.com'
p99
sg10
g29
sg11
I0
sg12
F0.0
sg13
I0
sg14
F594.0
sg15
I0
sg16
g29
sg17
I189583
sg18
I0
sg19
I0
sg20
I0
sg21
g29
sg22
I0
sg23
I0
sg24
I189583
sg25
F0.0
sg26
I0
ssS'BERGSIEKER RICHARD P'
p100
(dp101
g3
I383
sg4
I0
sg5
I59175
sg6
I00
sg7
I180250
sg8
S'rick.bergsieker@enron.com'
p102
sg10
I4
sg11
I-485813
sg12
F0.010443864229765013
sg13
I0
sg14
F233.0
sg15
I0
sg16
I59
sg17
I427316
sg18
I0
sg19
I250000
sg20
I659249
sg21
I0
sg22
I659249
sg23
I187922
sg24
I618850
sg25
F0.0
sg26
I0
ssS'URQUHART JOHN A'
p103
(dp104
g3
g29
sg4
I0
sg5
I228656
sg6
I00
sg7
I0
sg8
g29
sg10
g29
sg11
I-36666
sg12
F0.0
sg13
I0
sg14
F594.0
sg15
I0
sg16
g29
sg17
I0
sg18
I36666
sg19
I0
sg20
I0
sg21
g29
sg22
I0
sg23
I0
sg24
I228656
sg25
F0.0
sg26
I0
ssS'BIBI PHILIPPE A'
p105
(dp106
g3
I1607
sg4
I0
sg5
I38559
sg6
I00
sg7
I369721
sg8
S'philippe.bibi@enron.com'
p107
sg10
I23
sg11
I0
sg12
F0.01431238332296204
sg13
I0
sg14
F1336.0
sg15
I0
sg16
I40
sg17
I425688
sg18
I0
sg19
I1000000
sg20
I1843816
sg21
I8
sg22
I378082
sg23
I213625
sg24
I2047593
sg25
F0.2
sg26
I1465734
ssS'RIEKER PAULA H'
p108
(dp109
g3
I1328
sg4
I214678
sg5
I33271
sg6
I01
sg7
I0
sg8
S'paula.rieker@enron.com'
p110
sg10
I35
sg11
I-100000
sg12
F0.02635542168674699
sg13
I0
sg14
F1258.0
sg15
I0
sg16
I82
sg17
I1950
sg18
I0
sg19
I700000
sg20
I1918887
sg21
I48
sg22
I283649
sg23
I249201
sg24
I1099100
sg25
F0.5853658536585366
sg26
I1635238
ssS'WHALEY DAVID A'
p111
(dp112
g3
g29
sg4
I0
sg5
I0
sg6
I00
sg7
I0
sg8
g29
sg10
g29
sg11
I0
sg12
F0.0
sg13
I0
sg14
F594.0
sg15
I0
sg16
g29
sg17
I0
sg18
I0
sg19
I0
sg20
I98718
sg21
g29
sg22
I0
sg23
I0
sg24
I0
sg25
F0.0
sg26
I98718
ssS'BECK SALLY W'
p113
(dp114
g3
I7315
sg4
I0
sg5
I37172
sg6
I00
sg7
I0
sg8
S'sally.beck@enron.com'
p115
sg10
I144
sg11
I0
sg12
F0.01968557758031442
sg13
I0
sg14
F2639.0
sg15
I0
sg16
I4343
sg17
I566
sg18
I0
sg19
I700000
sg20
I126027
sg21
I386
sg22
I126027
sg23
I231330
sg24
I969068
sg25
F0.08887865530739121
sg26
I0
ssS'HAUG DAVID L'
p116
(dp117
g3
I573
sg4
I0
sg5
I475
sg6
I00
sg7
I0
sg8
S'david.haug@enron.com'
p118
sg10
I4
sg11
I0
sg12
F0.006980802792321117
sg13
I0
sg14
F471.0
sg15
I0
sg16
I19
sg17
I0
sg18
I0
sg19
I0
sg20
I2217299
sg21
I7
sg22
I2217299
sg23
I0
sg24
I475
sg25
F0.3684210526315789
sg26
I0
ssS'ECHOLS JOHN B'
p119
(dp120
g3
g29
sg4
I0
sg5
I21530
sg6
I00
sg7
I2234774
sg8
S'john.echols@enron.com'
p121
sg10
g29
sg11
I0
sg12
F0.0
sg13
I0
sg14
F594.0
sg15
I0
sg16
g29
sg17
I53775
sg18
I0
sg19
I200000
sg20
I1008941
sg21
g29
sg22
I407503
sg23
I182245
sg24
I2692324
sg25
F0.0
sg26
I601438
ssS'MENDELSOHN JOHN'
p122
(dp123
g3
g29
sg4
I0
sg5
I148
sg6
I00
sg7
I0
sg8
g29
sg10
g29
sg11
I-103750
sg12
F0.0
sg13
I0
sg14
F594.0
sg15
I0
sg16
g29
sg17
I0
sg18
I103750
sg19
I0
sg20
I0
sg21
g29
sg22
I0
sg23
I0
sg24
I148
sg25
F0.0
sg26
I0
ssS'HICKERSON GARY J'
p124
(dp125
g3
I1320
sg4
I0
sg5
I98849
sg6
I00
sg7
I69223
sg8
S'gary.hickerson@enron.com'
p126
sg10
I40
sg11
I0
sg12
F0.030303030303030304
sg13
I0
sg14
F900.0
sg15
I0
sg16
I27
sg17
I1936
sg18
I0
sg19
I1700000
sg20
I441096
sg21
I1
sg22
I441096
sg23
I211788
sg24
I2081796
sg25
F0.037037037037037035
sg26
I0
ssS'CLINE KENNETH W'
p127
(dp128
g3
g29
sg4
I0
sg5
I0
sg6
I00
sg7
I0
sg8
g29
sg10
g29
sg11
I0
sg12
F0.0
sg13
I-472568
sg14
F594.0
sg15
I0
sg16
g29
sg17
I0
sg18
I0
sg19
I0
sg20
I189518
sg21
g29
sg22
I662086
sg23
I0
sg24
I0
sg25
F0.0
sg26
I0
ssS'RICE KENNETH D'
p129
(dp130
g3
I905
sg4
I0
sg5
I46950
sg6
I01
sg7
I1617011
sg8
S'ken.rice@enron.com'
p131
sg10
I42
sg11
I-3504386
sg12
F0.04640883977900553
sg13
I0
sg14
F864.0
sg15
I0
sg16
I18
sg17
I174839
sg18
I0
sg19
I1750000
sg20
I22542539
sg21
I4
sg22
I2748364
sg23
I420636
sg24
I505050
sg25
F0.2222222222222222
sg26
I19794175
ssS'HAYES ROBERT E'
p132
(dp133
g3
I504
sg4
I7961
sg5
I0
sg6
I00
sg7
I0
sg8
S'robert.hayes@enron.com'
p134
sg10
I16
sg11
I0
sg12
F0.031746031746031744
sg13
I0
sg14
F50.0
sg15
I0
sg16
I12
sg17
I0
sg18
I0
sg19
I0
sg20
I151418
sg21
I0
sg22
I151418
sg23
I0
sg24
I7961
sg25
F0.0
sg26
I0
ssS'KOPPER MICHAEL J'
p135
(dp136
g3
g29
sg4
I0
sg5
I118134
sg6
I01
sg7
I602671
sg8
S'michael.kopper@enron.com'
p137
sg10
g29
sg11
I0
sg12
F0.0
sg13
I0
sg14
F1589.0
sg15
I0
sg16
g29
sg17
I907502
sg18
I0
sg19
I800000
sg20
I985032
sg21
g29
sg22
I985032
sg23
I224305
sg24
I2652612
sg25
F0.0
sg26
I0
ssS'LEFF DANIEL P'
p138
(dp139
g3
I2822
sg4
I0
sg5
I0
sg6
I00
sg7
I1387399
sg8
S'dan.leff@enron.com'
p140
sg10
I67
sg11
I0
sg12
F0.02374202693125443
sg13
I0
sg14
F2672.0
sg15
I0
sg16
I63
sg17
I3083
sg18
I0
sg19
I1000000
sg20
I360528
sg21
I14
sg22
I360528
sg23
I273746
sg24
I2664228
sg25
F0.2222222222222222
sg26
I0
ssS'LAVORATO JOHN J'
p141
(dp142
g3
I7259
sg4
I0
sg5
I49537
sg6
I00
sg7
I2035380
sg8
S'john.lavorato@enron.com'
p143
sg10
I528
sg11
I0
sg12
F0.07273729163796666
sg13
I0
sg14
F3962.0
sg15
I0
sg16
I2585
sg17
I1552
sg18
I0
sg19
I8000000
sg20
I5167144
sg21
I411
sg22
I1008149
sg23
I339288
sg24
I10425757
sg25
F0.15899419729206962
sg26
I4158995
ssS'BERBERIAN DAVID'
p144
(dp145
g3
g29
sg4
I0
sg5
I11892
sg6
I00
sg7
I0
sg8
S'david.berberian@enron.com'
p146
sg10
g29
sg11
I0
sg12
F0.0
sg13
I0
sg14
F594.0
sg15
I0
sg16
g29
sg17
I0
sg18
I0
sg19
I0
sg20
I2493616
sg21
g29
sg22
I869220
sg23
I216582
sg24
I228474
sg25
F0.0
sg26
I1624396
ssS'DETMERING TIMOTHY J'
p147
(dp148
g3
g29
sg4
I875307
sg5
I52255
sg6
I00
sg7
I415657
sg8
S'timothy.detmering@enron.com'
p149
sg10
g29
sg11
I-775241
sg12
F0.0
sg13
I-315068
sg14
F594.0
sg15
I0
sg16
g29
sg17
I1105
sg18
I0
sg19
I425000
sg20
I2027865
sg21
g29
sg22
I315068
sg23
I210500
sg24
I1204583
sg25
F0.0
sg26
I2027865
ssS'WAKEHAM JOHN'
p150
(dp151
g3
g29
sg4
I0
sg5
I103773
sg6
I00
sg7
I0
sg8
g29
sg10
g29
sg11
I0
sg12
F0.0
sg13
I0
sg14
F594.0
sg15
I0
sg16
g29
sg17
I0
sg18
I109298
sg19
I0
sg20
I0
sg21
g29
sg22
I0
sg23
I0
sg24
I213071
sg25
F0.0
sg26
I0
ssS'POWERS WILLIAM'
p152
(dp153
g3
I653
sg4
I0
sg5
I0
sg6
I00
sg7
I0
sg8
S'ken.powers@enron.com'
p154
sg10
I0
sg11
I-17500
sg12
F0.0
sg13
I0
sg14
F12.0
sg15
I0
sg16
I26
sg17
I0
sg18
I17500
sg19
I0
sg20
I0
sg21
I0
sg22
I0
sg23
I0
sg24
I0
sg25
F0.0
sg26
I0
ssS'GOLD JOSEPH'
p155
(dp156
g3
g29
sg4
I0
sg5
I0
sg6
I00
sg7
I304805
sg8
S'joe.gold@enron.com'
p157
sg10
g29
sg11
I0
sg12
F0.0
sg13
I0
sg14
F594.0
sg15
I0
sg16
g29
sg17
I819288
sg18
I0
sg19
I750000
sg20
I877611
sg21
g29
sg22
I441096
sg23
I272880
sg24
I2146973
sg25
F0.0
sg26
I436515
ssS'BANNANTINE JAMES M'
p158
(dp159
g3
I566
sg4
I0
sg5
I56301
sg6
I00
sg7
I0
sg8
S'james.bannantine@enron.com'
p160
sg10
I39
sg11
I-5104
sg12
F0.06890459363957598
sg13
I-560222
sg14
F465.0
sg15
I0
sg16
I29
sg17
I864523
sg18
I0
sg19
I0
sg20
I5243487
sg21
I0
sg22
I1757552
sg23
I477
sg24
I916197
sg25
F0.0
sg26
I4046157
ssS'DUNCAN JOHN H'
p161
(dp162
g3
g29
sg4
I0
sg5
I0
sg6
I00
sg7
I0
sg8
g29
sg10
g29
sg11
I-25000
sg12
F0.0
sg13
I0
sg14
F594.0
sg15
I0
sg16
g29
sg17
I0
sg18
I102492
sg19
I0
sg20
I371750
sg21
g29
sg22
I0
sg23
I0
sg24
I77492
sg25
F0.0
sg26
I371750
ssS'SHAPIRO RICHARD S'
p163
(dp164
g3
I15149
sg4
I0
sg5
I137767
sg6
I00
sg7
I0
sg8
S'richard.shapiro@enron.com'
p165
sg10
I74
sg11
I0
sg12
F0.0048848108786058485
sg13
I0
sg14
F4527.0
sg15
I0
sg16
I1215
sg17
I705
sg18
I0
sg19
I650000
sg20
I987001
sg21
I65
sg22
I379164
sg23
I269076
sg24
I1057548
sg25
F0.053497942386831275
sg26
I607837
ssS'SHERRIFF JOHN R'
p166
(dp167
g3
I3187
sg4
I0
sg5
I0
sg6
I00
sg7
I554422
sg8
S'john.sherriff@enron.com'
p168
sg10
I28
sg11
I0
sg12
F0.008785691873235017
sg13
I0
sg14
F2103.0
sg15
I0
sg16
I92
sg17
I1852186
sg18
I0
sg19
I1500000
sg20
I3128982
sg21
I23
sg22
I1293424
sg23
I428780
sg24
I4335388
sg25
F0.25
sg26
I1835558
ssS'SHELBY REX'
p169
(dp170
g3
I225
sg4
I0
sg5
I22884
sg6
I01
sg7
I0
sg8
S'rex.shelby@enron.com'
p171
sg10
I13
sg11
I-4167
sg12
F0.057777777777777775
sg13
I0
sg14
F91.0
sg15
I0
sg16
I39
sg17
I1573324
sg18
I0
sg19
I200000
sg20
I2493616
sg21
I14
sg22
I869220
sg23
I211844
sg24
I2003885
sg25
F0.358974358974359
sg26
I1624396
ssS'LEMAISTRE CHARLES'
p172
(dp173
g3
g29
sg4
I0
sg5
I0
sg6
I00
sg7
I0
sg8
g29
sg10
g29
sg11
I-25000
sg12
F0.0
sg13
I0
sg14
F594.0
sg15
I0
sg16
g29
sg17
I0
sg18
I112492
sg19
I0
sg20
I412878
sg21
g29
sg22
I0
sg23
I0
sg24
I87492
sg25
F0.0
sg26
I412878
ssS'DEFFNER JOSEPH M'
p174
(dp175
g3
I714
sg4
I0
sg5
I41626
sg6
I00
sg7
I335349
sg8
S'joseph.deffner@enron.com'
p176
sg10
I115
sg11
I0
sg12
F0.16106442577030813
sg13
I0
sg14
F552.0
sg15
I0
sg16
I74
sg17
I25553
sg18
I0
sg19
I600000
sg20
I159211
sg21
I4
sg22
I141833
sg23
I206121
sg24
I1208649
sg25
F0.05405405405405406
sg26
I17378
ssS'KISHKILL JOSEPH G'
p177
(dp178
g3
g29
sg4
I0
sg5
I116335
sg6
I00
sg7
I0
sg8
S'joe.kishkill@enron.com'
p179
sg10
g29
sg11
I-51042
sg12
F0.0
sg13
I0
sg14
F594.0
sg15
I0
sg16
g29
sg17
I465357
sg18
I0
sg19
I0
sg20
I1034346
sg21
g29
sg22
I1034346
sg23
I174246
sg24
I704896
sg25
F0.0
sg26
I0
ssS'WHALLEY LAWRENCE G'
p180
(dp181
g3
I6019
sg4
I0
sg5
I57838
sg6
I00
sg7
I808346
sg8
S'greg.whalley@enron.com'
p182
sg10
I186
sg11
I0
sg12
F0.03090214321315833
sg13
I0
sg14
F3920.0
sg15
I0
sg16
I556
sg17
I301026
sg18
I0
sg19
I3000000
sg20
I6079137
sg21
I24
sg22
I2796177
sg23
I510364
sg24
I4677574
sg25
F0.04316546762589928
sg26
I3282960
ssS'PIRO JIM'
p183
(dp184
g3
I58
sg4
I0
sg5
I0
sg6
I00
sg7
I0
sg8
S'jim.piro@enron.com'
p185
sg10
I0
sg11
I0
sg12
F0.0
sg13
I0
sg14
F3.0
sg15
I0
sg16
I16
sg17
I0
sg18
I0
sg19
I0
sg20
I47304
sg21
I1
sg22
I47304
sg23
I0
sg24
I0
sg25
F0.0625
sg26
I0
ssS'MCCONNELL MICHAEL S'
p186
(dp187
g3
I3329
sg4
I0
sg5
I81364
sg6
I00
sg7
I554422
sg8
S'mike.mcconnell@enron.com'
p188
sg10
I92
sg11
I0
sg12
F0.02763592670471613
sg13
I0
sg14
F2189.0
sg15
I0
sg16
I2742
sg17
I540
sg18
I0
sg19
I1100000
sg20
I3101279
sg21
I194
sg22
I1478269
sg23
I365038
sg24
I2101364
sg25
F0.07075127644055434
sg26
I1623010
ssS'DELAINEY DAVID W'
p189
(dp190
g3
I3093
sg4
I0
sg5
I86174
sg6
I01
sg7
I1294981
sg8
S'david.delainey@enron.com'
p191
sg10
I66
sg11
I0
sg12
F0.02133850630455868
sg13
I0
sg14
F2097.0
sg15
I0
sg16
I3069
sg17
I1661
sg18
I0
sg19
I3000000
sg20
I3614261
sg21
I609
sg22
I1323148
sg23
I365163
sg24
I4747979
sg25
F0.198435972629521
sg26
I2291113
ssS'SULLIVAN-SHAKLOVITZ COLLEEN'
p192
(dp193
g3
g29
sg4
I181993
sg5
I0
sg6
I00
sg7
I554422
sg8
g29
sg10
g29
sg11
I0
sg12
F0.0
sg13
I0
sg14
F594.0
sg15
I0
sg16
g29
sg17
I162
sg18
I0
sg19
I100000
sg20
I1362375
sg21
g29
sg22
I0
sg23
I162779
sg24
I999356
sg25
F0.0
sg26
I1362375
ssS'WROBEL BRUCE'
p194
(dp195
g3
g29
sg4
I0
sg5
I0
sg6
I00
sg7
I0
sg8
g29
sg10
g29
sg11
I0
sg12
F0.0
sg13
I0
sg14
F594.0
sg15
I0
sg16
g29
sg17
I0
sg18
I0
sg19
I0
sg20
I139130
sg21
g29
sg22
I0
sg23
I0
sg24
I0
sg25
F0.0
sg26
I139130
ssS'LINDHOLM TOD A'
p196
(dp197
g3
g29
sg4
I204075
sg5
I57727
sg6
I00
sg7
I175000
sg8
S'tod.lindholm@enron.com'
p198
sg10
g29
sg11
I0
sg12
F0.0
sg13
I0
sg14
F594.0
sg15
I0
sg16
g29
sg17
I2630
sg18
I0
sg19
I200000
sg20
I3064208
sg21
g29
sg22
I514847
sg23
I236457
sg24
I875889
sg25
F0.0
sg26
I2549361
ssS'MEYER JEROME J'
p199
(dp200
g3
g29
sg4
I0
sg5
I2151
sg6
I00
sg7
I0
sg8
g29
sg10
g29
sg11
I-38346
sg12
F0.0
sg13
I0
sg14
F594.0
sg15
I0
sg16
g29
sg17
I0
sg18
I38346
sg19
I0
sg20
I0
sg21
g29
sg22
I0
sg23
I0
sg24
I2151
sg25
F0.0
sg26
I0
ssS'LAY KENNETH L'
p201
(dp202
g3
I4273
sg4
I202911
sg5
I99832
sg6
I01
sg7
I3600000
sg8
S'kenneth.lay@enron.com'
p203
sg10
I123
sg11
I-300000
sg12
F0.028785396676807865
sg13
I0
sg14
F2411.0
sg15
I81525000
sg16
I36
sg17
I10359729
sg18
I0
sg19
I7000000
sg20
I49110078
sg21
I16
sg22
I14761694
sg23
I1072321
sg24
I103559793
sg25
F0.4444444444444444
sg26
I34348384
ssS'BUTTS ROBERT H'
p204
(dp205
g3
g29
sg4
I0
sg5
I9410
sg6
I00
sg7
I175000
sg8
S'bob.butts@enron.com'
p206
sg10
g29
sg11
I-75000
sg12
F0.0
sg13
I0
sg14
F594.0
sg15
I0
sg16
g29
sg17
I150656
sg18
I0
sg19
I750000
sg20
I417619
sg21
g29
sg22
I417619
sg23
I261516
sg24
I1271582
sg25
F0.0
sg26
I0
ssS'OLSON CINDY K'
p207
(dp208
g3
I1184
sg4
I77716
sg5
I63791
sg6
I00
sg7
I100000
sg8
S'cindy.olson@enron.com'
p209
sg10
I20
sg11
I0
sg12
F0.016891891891891893
sg13
I0
sg14
F856.0
sg15
I0
sg16
I52
sg17
I972
sg18
I0
sg19
I750000
sg20
I2606763
sg21
I15
sg22
I969729
sg23
I329078
sg24
I1321557
sg25
F0.28846153846153844
sg26
I1637034
ssS'MCDONALD REBECCA'
p210
(dp211
g3
I894
sg4
I0
sg5
I0
sg6
I00
sg7
I0
sg8
S'rebecca.mcdonald@enron.com'
p212
sg10
I54
sg11
I0
sg12
F0.06040268456375839
sg13
I0
sg14
F720.0
sg15
I0
sg16
I13
sg17
I0
sg18
I0
sg19
I0
sg20
I1691366
sg21
I1
sg22
I934065
sg23
I0
sg24
I0
sg25
F0.07692307692307693
sg26
I757301
ssS'CUMBERLAND MICHAEL S'
p213
(dp214
g3
g29
sg4
I0
sg5
I22344
sg6
I00
sg7
I275000
sg8
g29
sg10
g29
sg11
I0
sg12
F0.0
sg13
I0
sg14
F594.0
sg15
I0
sg16
g29
sg17
I713
sg18
I0
sg19
I325000
sg20
I207940
sg21
g29
sg22
I207940
sg23
I184899
sg24
I807956
sg25
F0.0
sg26
I0
ssS'GAHN ROBERT S'
p215
(dp216
g3
g29
sg4
I73122
sg5
I50080
sg6
I00
sg7
I0
sg8
g29
sg10
g29
sg11
I-1042
sg12
F0.0
sg13
I0
sg14
F594.0
sg15
I0
sg16
g29
sg17
I76547
sg18
I0
sg19
I509870
sg20
I318607
sg21
g29
sg22
I235370
sg23
I192008
sg24
I900585
sg25
F0.0
sg26
I83237
ssS'BADUM JAMES P'
p217
(dp218
g3
g29
sg4
I178980
sg5
I3486
sg6
I00
sg7
I0
sg8
g29
sg10
g29
sg11
I0
sg12
F0.0
sg13
I0
sg14
F594.0
sg15
I0
sg16
g29
sg17
I0
sg18
I0
sg19
I0
sg20
I257817
sg21
g29
sg22
I0
sg23
I0
sg24
I182466
sg25
F0.0
sg26
I257817
ssS'HERMANN ROBERT J'
p219
(dp220
g3
g29
sg4
I0
sg5
I48357
sg6
I00
sg7
I150000
sg8
S'robert.hermann@enron.com'
p221
sg10
g29
sg11
I-280000
sg12
F0.0
sg13
I0
sg14
F594.0
sg15
I0
sg16
g29
sg17
I416441
sg18
I0
sg19
I700000
sg20
I668132
sg21
g29
sg22
I480632
sg23
I262663
sg24
I1297461
sg25
F0.0
sg26
I187500
ssS'FALLON JAMES B'
p222
(dp223
g3
I1755
sg4
I0
sg5
I95924
sg6
I00
sg7
I374347
sg8
S'jim.fallon@enron.com'
p224
sg10
I42
sg11
I0
sg12
F0.023931623931623933
sg13
I0
sg14
F1604.0
sg15
I0
sg16
I75
sg17
I401481
sg18
I0
sg19
I2500000
sg20
I2332399
sg21
I37
sg22
I1392142
sg23
I304588
sg24
I3676340
sg25
F0.49333333333333335
sg26
I940257
ssS'GATHMANN WILLIAM D'
p225
(dp226
g3
g29
sg4
I0
sg5
I0
sg6
I00
sg7
I0
sg8
g29
sg10
g29
sg11
I0
sg12
F0.0
sg13
I-72419
sg14
F594.0
sg15
I0
sg16
g29
sg17
I0
sg18
I0
sg19
I0
sg20
I1945360
sg21
g29
sg22
I264013
sg23
I0
sg24
I0
sg25
F0.0
sg26
I1753766
ssS'HORTON STANLEY C'
p227
(dp228
g3
I2350
sg4
I3131860
sg5
I0
sg6
I00
sg7
I0
sg8
S'stanley.horton@enron.com'
p229
sg10
I44
sg11
I0
sg12
F0.01872340425531915
sg13
I0
sg14
F1074.0
sg15
I0
sg16
I1073
sg17
I0
sg18
I0
sg19
I0
sg20
I7256648
sg21
I15
sg22
I2046079
sg23
I0
sg24
I3131860
sg25
F0.013979496738117428
sg26
I5210569
ssS'BOWEN JR RAYMOND M'
p230
(dp231
g3
I1858
sg4
I0
sg5
I65907
sg6
I01
sg7
I974293
sg8
S'raymond.bowen@enron.com'
p232
sg10
I140
sg11
I-833
sg12
F0.07534983853606028
sg13
I0
sg14
F1593.0
sg15
I0
sg16
I27
sg17
I1621
sg18
I0
sg19
I1350000
sg20
I252055
sg21
I15
sg22
I252055
sg23
I278601
sg24
I2669589
sg25
F0.5555555555555556
sg26
I0
ssS'GILLIS JOHN'
p233
(dp234
g3
g29
sg4
I0
sg5
I0
sg6
I00
sg7
I0
sg8
g29
sg10
g29
sg11
I0
sg12
F0.0
sg13
I0
sg14
F594.0
sg15
I0
sg16
g29
sg17
I0
sg18
I0
sg19
I0
sg20
I85641
sg21
g29
sg22
I75838
sg23
I0
sg24
I0
sg25
F0.0
sg26
I9803
ssS'FITZGERALD JAY L'
p235
(dp236
g3
I936
sg4
I0
sg5
I23870
sg6
I00
sg7
I556416
sg8
S'jay.fitzgerald@enron.com'
p237
sg10
I1
sg11
I0
sg12
F0.0010683760683760685
sg13
I0
sg14
F723.0
sg15
I0
sg16
I16
sg17
I285414
sg18
I0
sg19
I350000
sg20
I1621236
sg21
I8
sg22
I956775
sg23
I199157
sg24
I1414857
sg25
F0.5
sg26
I664461
ssS'MORAN MICHAEL P'
p238
(dp239
g3
I672
sg4
I0
sg5
I0
sg6
I00
sg7
I0
sg8
S'michael.moran@enron.com'
p240
sg10
I0
sg11
I0
sg12
F0.0
sg13
I0
sg14
F127.0
sg15
I0
sg16
I19
sg17
I0
sg18
I0
sg19
I0
sg20
I221141
sg21
I0
sg22
I161602
sg23
I0
sg24
I0
sg25
F0.0
sg26
I59539
ssS'REDMOND BRIAN L'
p241
(dp242
g3
I1671
sg4
I0
sg5
I14689
sg6
I00
sg7
I0
sg8
S'brian.redmond@enron.com'
p243
sg10
I204
sg11
I0
sg12
F0.12208258527827648
sg13
I0
sg14
F1063.0
sg15
I0
sg16
I221
sg17
I0
sg18
I0
sg19
I0
sg20
I7890324
sg21
I49
sg22
I381285
sg23
I96840
sg24
I111529
sg25
F0.22171945701357465
sg26
I7509039
ssS'BAZELIDES PHILIP J'
p244
(dp245
g3
g29
sg4
I684694
sg5
I0
sg6
I00
sg7
I93750
sg8
g29
sg10
g29
sg11
I0
sg12
F0.0
sg13
I0
sg14
F594.0
sg15
I0
sg16
g29
sg17
I874
sg18
I0
sg19
I0
sg20
I1599641
sg21
g29
sg22
I0
sg23
I80818
sg24
I860136
sg25
F0.0
sg26
I1599641
ssS'BELDEN TIMOTHY N'
p246
(dp247
g3
I7991
sg4
I2144013
sg5
I17355
sg6
I01
sg7
I0
sg8
S'tim.belden@enron.com'
p248
sg10
I228
sg11
I-2334434
sg12
F0.028532098610937303
sg13
I0
sg14
F5521.0
sg15
I0
sg16
I484
sg17
I210698
sg18
I0
sg19
I5249999
sg20
I1110705
sg21
I108
sg22
I157569
sg23
I213999
sg24
I5501630
sg25
F0.2231404958677686
sg26
I953136
ssS'DIMICHELE RICHARD G'
p249
(dp250
g3
g29
sg4
I0
sg5
I35812
sg6
I00
sg7
I694862
sg8
S'richard.dimichele@enron.com'
p251
sg10
g29
sg11
I0
sg12
F0.0
sg13
I0
sg14
F594.0
sg15
I0
sg16
g29
sg17
I374689
sg18
I0
sg19
I1000000
sg20
I8317782
sg21
g29
sg22
I126027
sg23
I262788
sg24
I2368151
sg25
F0.0
sg26
I8191755
ssS'DURAN WILLIAM D'
p252
(dp253
g3
I904
sg4
I0
sg5
I25785
sg6
I00
sg7
I1105218
sg8
S'w.duran@enron.com'
p254
sg10
I106
sg11
I0
sg12
F0.1172566371681416
sg13
I0
sg14
F599.0
sg15
I0
sg16
I12
sg17
I1568
sg18
I0
sg19
I750000
sg20
I1640910
sg21
I3
sg22
I189041
sg23
I210692
sg24
I2093263
sg25
F0.25
sg26
I1451869
ssS'THORN TERENCE H'
p255
(dp256
g3
I266
sg4
I16586
sg5
I46145
sg6
I00
sg7
I200000
sg8
S'terence.thorn@enron.com'
p257
sg10
I0
sg11
I0
sg12
F0.0
sg13
I0
sg14
F73.0
sg15
I0
sg16
I41
sg17
I426629
sg18
I0
sg19
I0
sg20
I4817796
sg21
I0
sg22
I365320
sg23
I222093
sg24
I911453
sg25
F0.0
sg26
I4452476
ssS'FASTOW ANDREW S'
p258
(dp259
g3
g29
sg4
I0
sg5
I55921
sg6
I01
sg7
I1736055
sg8
S'andrew.fastow@enron.com'
p260
sg10
g29
sg11
I-1386055
sg12
F0.0
sg13
I0
sg14
F1589.0
sg15
I0
sg16
g29
sg17
I277464
sg18
I0
sg19
I1300000
sg20
I1794412
sg21
g29
sg22
I1794412
sg23
I440698
sg24
I2424083
sg25
F0.0
sg26
I0
ssS'FOY JOE'
p261
(dp262
g3
I57
sg4
I181755
sg5
I0
sg6
I00
sg7
I0
sg8
S'tracy.foy@enron.com'
p263
sg10
I0
sg11
I0
sg12
F0.0
sg13
I0
sg14
F2.0
sg15
I0
sg16
I13
sg17
I0
sg18
I0
sg19
I0
sg20
I343434
sg21
I0
sg22
I0
sg23
I0
sg24
I181755
sg25
F0.0
sg26
I343434
ssS'CALGER CHRISTOPHER F'
p264
(dp265
g3
I2598
sg4
I0
sg5
I35818
sg6
I01
sg7
I375304
sg8
S'christopher.calger@enron.com'
p266
sg10
I199
sg11
I-262500
sg12
F0.07659738260200154
sg13
I0
sg14
F2188.0
sg15
I0
sg16
I144
sg17
I486
sg18
I0
sg19
I1250000
sg20
I126027
sg21
I25
sg22
I126027
sg23
I240189
sg24
I1639297
sg25
F0.1736111111111111
sg26
I0
ssS'LEWIS RICHARD'
p267
(dp268
g3
I952
sg4
I0
sg5
I0
sg6
I00
sg7
I0
sg8
S'richard.lewis@enron.com'
p269
sg10
I10
sg11
I0
sg12
F0.01050420168067227
sg13
I0
sg14
F739.0
sg15
I0
sg16
I26
sg17
I0
sg18
I0
sg19
I0
sg20
I850477
sg21
I0
sg22
I0
sg23
I0
sg24
I0
sg25
F0.0
sg26
I850477
ssS'KAMINSKI WINCENTY J'
p270
(dp271
g3
I4607
sg4
I0
sg5
I83585
sg6
I00
sg7
I323466
sg8
S'vince.kaminski@enron.com'
p272
sg10
I41
sg11
I0
sg12
F0.008899500759713479
sg13
I0
sg14
F583.0
sg15
I0
sg16
I14368
sg17
I4669
sg18
I0
sg19
I400000
sg20
I976037
sg21
I171
sg22
I126027
sg23
I275101
sg24
I1086821
sg25
F0.011901447661469933
sg26
I850010
ssS'LOCKHART EUGENE E'
p273
(dp274
g3
g29
sg4
I0
sg5
I0
sg6
I00
sg7
I0
sg8
g29
sg10
g29
sg11
I0
sg12
F0.0
sg13
I0
sg14
F594.0
sg15
I0
sg16
g29
sg17
I0
sg18
I0
sg19
I0
sg20
I0
sg21
g29
sg22
I0
sg23
I0
sg24
I0
sg25
F0.0
sg26
I0
ssS'COX DAVID'
p275
(dp276
g3
I102
sg4
I0
sg5
I27861
sg6
I00
sg7
I0
sg8
S'chip.cox@enron.com'
p277
sg10
I0
sg11
I-41250
sg12
F0.0
sg13
I0
sg14
F71.0
sg15
I0
sg16
I33
sg17
I494
sg18
I0
sg19
I800000
sg20
I495633
sg21
I4
sg22
I378082
sg23
I314288
sg24
I1101393
sg25
F0.12121212121212122
sg26
I117551
ssS'OVERDYKE JR JERE C'
p278
(dp279
g3
g29
sg4
I0
sg5
I18834
sg6
I00
sg7
I135836
sg8
S'jere.overdyke@enron.com'
p280
sg10
g29
sg11
I0
sg12
F0.0
sg13
I0
sg14
F594.0
sg15
I0
sg16
g29
sg17
I176
sg18
I0
sg19
I0
sg20
I7307594
sg21
g29
sg22
I2041016
sg23
I94941
sg24
I249787
sg25
F0.0
sg26
I5266578
ssS'PEREIRA PAULO V. FERRAZ'
p281
(dp282
g3
g29
sg4
I0
sg5
I27942
sg6
I00
sg7
I0
sg8
g29
sg10
g29
sg11
I-101250
sg12
F0.0
sg13
I0
sg14
F594.0
sg15
I0
sg16
g29
sg17
I0
sg18
I101250
sg19
I0
sg20
I0
sg21
g29
sg22
I0
sg23
I0
sg24
I27942
sg25
F0.0
sg26
I0
ssS'STABLER FRANK'
p283
(dp284
g3
g29
sg4
I0
sg5
I16514
sg6
I00
sg7
I0
sg8
S'frank.stabler@enron.com'
p285
sg10
g29
sg11
I0
sg12
F0.0
sg13
I0
sg14
F594.0
sg15
I0
sg16
g29
sg17
I356071
sg18
I0
sg19
I500000
sg20
I511734
sg21
g29
sg22
I511734
sg23
I239502
sg24
I1112087
sg25
F0.0
sg26
I0
ssS'SKILLING JEFFREY K'
p286
(dp287
g3
I3627
sg4
I0
sg5
I29336
sg6
I01
sg7
I1920000
sg8
S'jeff.skilling@enron.com'
p288
sg10
I88
sg11
I0
sg12
F0.0242624758753791
sg13
I0
sg14
F2042.0
sg15
I0
sg16
I108
sg17
I22122
sg18
I0
sg19
I5600000
sg20
I26093672
sg21
I30
sg22
I6843672
sg23
I1111258
sg24
I8682716
sg25
F0.2777777777777778
sg26
I19250000
ssS'BLAKE JR. NORMAN P'
p289
(dp290
g3
g29
sg4
I0
sg5
I1279
sg6
I00
sg7
I0
sg8
g29
sg10
g29
sg11
I-113784
sg12
F0.0
sg13
I0
sg14
F594.0
sg15
I0
sg16
g29
sg17
I0
sg18
I113784
sg19
I0
sg20
I0
sg21
g29
sg22
I0
sg23
I0
sg24
I1279
sg25
F0.0
sg26
I0
ssS'SHERRICK JEFFREY B'
p291
(dp292
g3
I613
sg4
I0
sg5
I0
sg6
I00
sg7
I0
sg8
S'jeffrey.sherrick@enron.com'
p293
sg10
I39
sg11
I0
sg12
F0.0636215334420881
sg13
I0
sg14
F583.0
sg15
I0
sg16
I25
sg17
I0
sg18
I0
sg19
I0
sg20
I1832468
sg21
I18
sg22
I405999
sg23
I0
sg24
I0
sg25
F0.72
sg26
I1426469
ssS'PRENTICE JAMES'
p294
(dp295
g3
g29
sg4
I564348
sg5
I0
sg6
I00
sg7
I0
sg8
S'james.prentice@enron.com'
p296
sg10
g29
sg11
I0
sg12
F0.0
sg13
I0
sg14
F594.0
sg15
I0
sg16
g29
sg17
I0
sg18
I0
sg19
I0
sg20
I1095040
sg21
g29
sg22
I208809
sg23
I0
sg24
I564348
sg25
F0.0
sg26
I886231
ssS'GRAY RODNEY'
p297
(dp298
g3
g29
sg4
I93585
sg5
I0
sg6
I00
sg7
I365625
sg8
g29
sg10
g29
sg11
I0
sg12
F0.0
sg13
I0
sg14
F594.0
sg15
I0
sg16
g29
sg17
I680833
sg18
I0
sg19
I0
sg20
I0
sg21
g29
sg22
I0
sg23
I6615
sg24
I1146658
sg25
F0.0
sg26
I0
ssS'THE TRAVEL AGENCY IN THE PARK'
p299
(dp300
g3
g29
sg4
I0
sg5
I0
sg6
I00
sg7
I0
sg8
g29
sg10
g29
sg11
I0
sg12
F0.0
sg13
I0
sg14
F594.0
sg15
I0
sg16
g29
sg17
I362096
sg18
I0
sg19
I0
sg20
I0
sg21
g29
sg22
I0
sg23
I0
sg24
I362096
sg25
F0.0
sg26
I0
ssS'UMANOFF ADAM S'
p301
(dp302
g3
I111
sg4
I0
sg5
I53122
sg6
I00
sg7
I0
sg8
S'adam.umanoff@enron.com'
p303
sg10
I12
sg11
I0
sg12
F0.10810810810810811
sg13
I0
sg14
F41.0
sg15
I0
sg16
I18
sg17
I0
sg18
I0
sg19
I788750
sg20
I0
sg21
I0
sg22
I0
sg23
I288589
sg24
I1130461
sg25
F0.0
sg26
I0
ssS'KEAN STEVEN J'
p304
(dp305
g3
I12754
sg4
I0
sg5
I41953
sg6
I00
sg7
I300000
sg8
S'steven.kean@enron.com'
p306
sg10
I140
sg11
I0
sg12
F0.010976948408342482
sg13
I0
sg14
F3639.0
sg15
I0
sg16
I6759
sg17
I1231
sg18
I0
sg19
I1000000
sg20
I6153642
sg21
I387
sg22
I4131594
sg23
I404338
sg24
I1747522
sg25
F0.05725699067909454
sg26
I2022048
ssS'TOTAL'
p307
(dp308
g3
g29
sg4
I32083396
sg5
I5235198
sg6
I00
sg7
I48521928
sg8
g29
sg10
g29
sg11
I-27992891
sg12
F0.0
sg13
I-7576788
sg14
F594.0
sg15
I83925000
sg16
g29
sg17
I42667589
sg18
I1398517
sg19
I97343619
sg20
I434509511
sg21
g29
sg22
I130322299
sg23
I26704229
sg24
I309886585
sg25
F0.0
sg26
I311764000
ssS'FOWLER PEGGY'
p309
(dp310
g3
I517
sg4
I0
sg5
I0
sg6
I00
sg7
I0
sg8
S'kulvinder.fowler@enron.com'
p311
sg10
I0
sg11
I0
sg12
F0.0
sg13
I0
sg14
F10.0
sg15
I0
sg16
I36
sg17
I0
sg18
I0
sg19
I0
sg20
I1884748
sg21
I0
sg22
I560170
sg23
I0
sg24
I0
sg25
F0.0
sg26
I1324578
ssS'WASAFF GEORGE'
p312
(dp313
g3
I400
sg4
I831299
sg5
I0
sg6
I00
sg7
I200000
sg8
S'george.wasaff@enron.com'
p314
sg10
I22
sg11
I-583325
sg12
F0.055
sg13
I0
sg14
F337.0
sg15
I0
sg16
I30
sg17
I1425
sg18
I0
sg19
I325000
sg20
I2056427
sg21
I7
sg22
I388167
sg23
I259996
sg24
I1034395
sg25
F0.23333333333333334
sg26
I1668260
ssS'WHITE JR THOMAS E'
p315
(dp316
g3
g29
sg4
I0
sg5
I81353
sg6
I00
sg7
I0
sg8
S'thomas.white@enron.com'
p317
sg10
g29
sg11
I0
sg12
F0.0
sg13
I0
sg14
F594.0
sg15
I0
sg16
g29
sg17
I1085463
sg18
I0
sg19
I450000
sg20
I15144123
sg21
g29
sg22
I13847074
sg23
I317543
sg24
I1934359
sg25
F0.0
sg26
I1297049
ssS'CHRISTODOULOU DIOMEDES'
p318
(dp319
g3
g29
sg4
I0
sg5
I0
sg6
I00
sg7
I0
sg8
S'diomedes.christodoulou@enron.com'
p320
sg10
g29
sg11
I0
sg12
F0.0
sg13
I0
sg14
F594.0
sg15
I0
sg16
g29
sg17
I0
sg18
I0
sg19
I0
sg20
I6077885
sg21
g29
sg22
I950730
sg23
I0
sg24
I0
sg25
F0.0
sg26
I5127155
ssS'ALLEN PHILLIP K'
p321
(dp322
g3
I2902
sg4
I2869717
sg5
I13868
sg6
I00
sg7
I304805
sg8
S'phillip.allen@enron.com'
p323
sg10
I47
sg11
I-3081055
sg12
F0.016195727084769126
sg13
I-126027
sg14
F1407.0
sg15
I0
sg16
I2195
sg17
I152
sg18
I0
sg19
I4175000
sg20
I1729541
sg21
I65
sg22
I126027
sg23
I201955
sg24
I4484442
sg25
F0.029612756264236904
sg26
I1729541
ssS'SHARP VICTORIA T'
p324
(dp325
g3
I3136
sg4
I187469
sg5
I116337
sg6
I00
sg7
I422158
sg8
S'vicki.sharp@enron.com'
p326
sg10
I24
sg11
I0
sg12
F0.007653061224489796
sg13
I0
sg14
F2477.0
sg15
I0
sg16
I136
sg17
I2401
sg18
I0
sg19
I600000
sg20
I494136
sg21
I6
sg22
I213063
sg23
I248146
sg24
I1576511
sg25
F0.04411764705882353
sg26
I281073
ssS'JAEDICKE ROBERT'
p327
(dp328
g3
g29
sg4
I0
sg5
I0
sg6
I00
sg7
I0
sg8
g29
sg10
g29
sg11
I-25000
sg12
F0.0
sg13
I-44093
sg14
F594.0
sg15
I0
sg16
g29
sg17
I0
sg18
I108750
sg19
I0
sg20
I431750
sg21
g29
sg22
I44093
sg23
I0
sg24
I83750
sg25
F0.0
sg26
I431750
ssS'WINOKUR JR. HERBERT S'
p329
(dp330
g3
g29
sg4
I0
sg5
I1413
sg6
I00
sg7
I0
sg8
g29
sg10
g29
sg11
I-25000
sg12
F0.0
sg13
I0
sg14
F594.0
sg15
I0
sg16
g29
sg17
I0
sg18
I108579
sg19
I0
sg20
I0
sg21
g29
sg22
I0
sg23
I0
sg24
I84992
sg25
F0.0
sg26
I0
ssS'BROWN MICHAEL'
p331
(dp332
g3
I1486
sg4
I0
sg5
I49288
sg6
I00
sg7
I0
sg8
S'michael.brown@enron.com'
p333
sg10
I13
sg11
I0
sg12
F0.008748317631224764
sg13
I0
sg14
F761.0
sg15
I0
sg16
I41
sg17
I0
sg18
I0
sg19
I0
sg20
I0
sg21
I1
sg22
I0
sg23
I0
sg24
I49288
sg25
F0.024390243902439025
sg26
I0
ssS'MCCLELLAN GEORGE'
p334
(dp335
g3
I1744
sg4
I0
sg5
I228763
sg6
I00
sg7
I0
sg8
S'george.mcclellan@enron.com'
p336
sg10
I52
sg11
I-125000
sg12
F0.02981651376146789
sg13
I0
sg14
F1469.0
sg15
I0
sg16
I49
sg17
I51587
sg18
I0
sg19
I900000
sg20
I947861
sg21
I0
sg22
I441096
sg23
I263413
sg24
I1318763
sg25
F0.0
sg26
I506765
ssS'HUGHES JAMES A'
p337
(dp338
g3
I719
sg4
I0
sg5
I0
sg6
I00
sg7
I0
sg8
S'james.hughes@enron.com'
p339
sg10
I35
sg11
I0
sg12
F0.048678720445062586
sg13
I0
sg14
F589.0
sg15
I0
sg16
I34
sg17
I0
sg18
I0
sg19
I0
sg20
I1118394
sg21
I5
sg22
I363428
sg23
I0
sg24
I0
sg25
F0.14705882352941177
sg26
I754966
ssS'REYNOLDS LAWRENCE'
p340
(dp341
g3
g29
sg4
I51365
sg5
I8409
sg6
I00
sg7
I156250
sg8
g29
sg10
g29
sg11
I-200000
sg12
F0.0
sg13
I-140264
sg14
F594.0
sg15
I0
sg16
g29
sg17
I202052
sg18
I0
sg19
I100000
sg20
I4221891
sg21
g29
sg22
I201483
sg23
I76399
sg24
I394475
sg25
F0.0
sg26
I4160672
ssS'PICKERING MARK R'
p342
(dp343
g3
I898
sg4
I0
sg5
I31653
sg6
I00
sg7
I0
sg8
S'mark.pickering@enron.com'
p344
sg10
I7
sg11
I0
sg12
F0.0077951002227171495
sg13
I0
sg14
F728.0
sg15
I400000
sg16
I67
sg17
I0
sg18
I0
sg19
I300000
sg20
I28798
sg21
I0
sg22
I0
sg23
I655037
sg24
I1386690
sg25
F0.0
sg26
I28798
ssS'BHATNAGAR SANJAY'
p345
(dp346
g3
I523
sg4
I0
sg5
I0
sg6
I00
sg7
I0
sg8
S'sanjay.bhatnagar@enron.com'
p347
sg10
I0
sg11
I0
sg12
F0.0
sg13
I15456290
sg14
F463.0
sg15
I0
sg16
I29
sg17
I137864
sg18
I137864
sg19
I0
sg20
I0
sg21
I1
sg22
I-2604490
sg23
I0
sg24
I15456290
sg25
F0.034482758620689655
sg26
I2604490
ssS'CARTER REBECCA C'
p348
(dp349
g3
I312
sg4
I0
sg5
I0
sg6
I00
sg7
I75000
sg8
S'rebecca.carter@enron.com'
p350
sg10
I29
sg11
I-159792
sg12
F0.09294871794871795
sg13
I-307301
sg14
F196.0
sg15
I0
sg16
I15
sg17
I540
sg18
I0
sg19
I300000
sg20
I0
sg21
I7
sg22
I307301
sg23
I261809
sg24
I477557
sg25
F0.4666666666666667
sg26
I0
ssS'BUCHANAN HAROLD G'
p351
(dp352
g3
I1088
sg4
I0
sg5
I600
sg6
I00
sg7
I304805
sg8
S'john.buchanan@enron.com'
p353
sg10
I0
sg11
I0
sg12
F0.0
sg13
I0
sg14
F23.0
sg15
I0
sg16
I125
sg17
I1215
sg18
I0
sg19
I500000
sg20
I1014505
sg21
I0
sg22
I189041
sg23
I248017
sg24
I1054637
sg25
F0.0
sg26
I825464
ssS'YEAP SOON'
p354
(dp355
g3
g29
sg4
I0
sg5
I55097
sg6
I00
sg7
I0
sg8
g29
sg10
g29
sg11
I0
sg12
F0.0
sg13
I0
sg14
F594.0
sg15
I0
sg16
g29
sg17
I0
sg18
I0
sg19
I0
sg20
I192758
sg21
g29
sg22
I0
sg23
I0
sg24
I55097
sg25
F0.0
sg26
I192758
ssS'MURRAY JULIA H'
p356
(dp357
g3
I2192
sg4
I0
sg5
I57580
sg6
I00
sg7
I125000
sg8
S'julia.murray@enron.com'
p358
sg10
I11
sg11
I0
sg12
F0.005018248175182482
sg13
I0
sg14
F395.0
sg15
I0
sg16
I45
sg17
I330
sg18
I0
sg19
I400000
sg20
I597461
sg21
I2
sg22
I196983
sg23
I229284
sg24
I812194
sg25
F0.044444444444444446
sg26
I400478
ssS'GARLAND C KEVIN'
p359
(dp360
g3
I209
sg4
I0
sg5
I48405
sg6
I00
sg7
I375304
sg8
S'kevin.garland@enron.com'
p361
sg10
I10
sg11
I0
sg12
F0.04784688995215311
sg13
I0
sg14
F178.0
sg15
I0
sg16
I44
sg17
I60814
sg18
I0
sg19
I850000
sg20
I896153
sg21
I27
sg22
I259907
sg23
I231946
sg24
I1566469
sg25
F0.6136363636363636
sg26
I636246
ssS'DODSON KEITH'
p362
(dp363
g3
I176
sg4
I0
sg5
I28164
sg6
I00
sg7
I0
sg8
S'keith.dodson@enron.com'
p364
sg10
I10
sg11
I0
sg12
F0.056818181818181816
sg13
I0
sg14
F114.0
sg15
I0
sg16
I14
sg17
I774
sg18
I0
sg19
I70000
sg20
I0
sg21
I3
sg22
I0
sg23
I221003
sg24
I319941
sg25
F0.21428571428571427
sg26
I0
ssS'YEAGER F SCOTT'
p365
(dp366
g3
g29
sg4
I0
sg5
I53947
sg6
I01
sg7
I0
sg8
S'scott.yeager@enron.com'
p367
sg10
g29
sg11
I0
sg12
F0.0
sg13
I0
sg14
F1589.0
sg15
I0
sg16
g29
sg17
I147950
sg18
I0
sg19
I0
sg20
I11884758
sg21
g29
sg22
I3576206
sg23
I158403
sg24
I360300
sg25
F0.0
sg26
I8308552
ssS'HIRKO JOSEPH'
p368
(dp369
g3
g29
sg4
I10259
sg5
I77978
sg6
I01
sg7
I0
sg8
S'joe.hirko@enron.com'
p370
sg10
g29
sg11
I0
sg12
F0.0
sg13
I0
sg14
F1589.0
sg15
I0
sg16
g29
sg17
I2856
sg18
I0
sg19
I0
sg20
I30766064
sg21
g29
sg22
I0
sg23
I0
sg24
I91093
sg25
F0.0
sg26
I30766064
ssS'DIETRICH JANET R'
p371
(dp372
g3
I2572
sg4
I0
sg5
I3475
sg6
I00
sg7
I556416
sg8
S'janet.dietrich@enron.com'
p373
sg10
I305
sg11
I0
sg12
F0.11858475894245724
sg13
I0
sg14
F1902.0
sg15
I0
sg16
I63
sg17
I473
sg18
I0
sg19
I600000
sg20
I1865087
sg21
I14
sg22
I315068
sg23
I250100
sg24
I1410464
sg25
F0.2222222222222222
sg26
I1550019
ssS'DERRICK JR. JAMES V'
p374
(dp375
g3
I2181
sg4
I0
sg5
I51124
sg6
I00
sg7
I484000
sg8
S'james.derrick@enron.com'
p376
sg10
I64
sg11
I-1284000
sg12
F0.029344337459880788
sg13
I-1787380
sg14
F1401.0
sg15
I0
sg16
I909
sg17
I7482
sg18
I0
sg19
I800000
sg20
I8831913
sg21
I20
sg22
I1787380
sg23
I492375
sg24
I550981
sg25
F0.022002200220022004
sg26
I8831913
ssS'FREVERT MARK A'
p377
(dp378
g3
I3275
sg4
I6426990
sg5
I86987
sg6
I00
sg7
I1617011
sg8
S'mark.frevert@enron.com'
p379
sg10
I242
sg11
I-3367011
sg12
F0.07389312977099237
sg13
I0
sg14
F2979.0
sg15
I2000000
sg16
I21
sg17
I7427621
sg18
I0
sg19
I2000000
sg20
I14622185
sg21
I6
sg22
I4188667
sg23
I1060932
sg24
I17252530
sg25
F0.2857142857142857
sg26
I10433518
ssS'PAI LOU L'
p380
(dp381
g3
g29
sg4
I0
sg5
I32047
sg6
I00
sg7
I0
sg8
S'lou.pai@enron.com'
p382
sg10
g29
sg11
I0
sg12
F0.0
sg13
I0
sg14
F594.0
sg15
I0
sg16
g29
sg17
I1829457
sg18
I0
sg19
I1000000
sg20
I23817930
sg21
g29
sg22
I8453763
sg23
I261879
sg24
I3123383
sg25
F0.0
sg26
I15364167
ssS'HAYSLETT RODERICK J'
p383
(dp384
g3
I2649
sg4
I0
sg5
I0
sg6
I00
sg7
I0
sg8
S'rod.hayslett@enron.com'
p385
sg10
I35
sg11
I0
sg12
F0.01321253303133258
sg13
I0
sg14
F571.0
sg15
I0
sg16
I1061
sg17
I0
sg18
I0
sg19
I0
sg20
I346663
sg21
I38
sg22
I346663
sg23
I0
sg24
I0
sg25
F0.03581526861451461
sg26
I0
ssS'BAY FRANKLIN R'
p386
(dp387
g3
g29
sg4
I260455
sg5
I129142
sg6
I00
sg7
I0
sg8
S'frank.bay@enron.com'
p388
sg10
g29
sg11
I-201641
sg12
F0.0
sg13
I-82782
sg14
F594.0
sg15
I0
sg16
g29
sg17
I69
sg18
I0
sg19
I400000
sg20
I63014
sg21
g29
sg22
I145796
sg23
I239671
sg24
I827696
sg25
F0.0
sg26
I0
ssS'MCCARTY DANNY J'
p389
(dp390
g3
I1433
sg4
I0
sg5
I0
sg6
I00
sg7
I0
sg8
S'danny.mccarty@enron.com'
p391
sg10
I25
sg11
I0
sg12
F0.017445917655268667
sg13
I0
sg14
F508.0
sg15
I0
sg16
I215
sg17
I0
sg18
I0
sg19
I0
sg20
I758931
sg21
I2
sg22
I94556
sg23
I0
sg24
I0
sg25
F0.009302325581395349
sg26
I664375
ssS'FUGH JOHN L'
p392
(dp393
g3
g29
sg4
I50591
sg5
I0
sg6
I00
sg7
I0
sg8
g29
sg10
g29
sg11
I0
sg12
F0.0
sg13
I0
sg14
F594.0
sg15
I0
sg16
g29
sg17
I0
sg18
I0
sg19
I0
sg20
I176378
sg21
g29
sg22
I0
sg23
I0
sg24
I50591
sg25
F0.0
sg26
I176378
ssS'SCRIMSHAW MATTHEW'
p394
(dp395
g3
g29
sg4
I0
sg5
I0
sg6
I00
sg7
I0
sg8
S'matthew.scrimshaw@enron.com'
p396
sg10
g29
sg11
I0
sg12
F0.0
sg13
I0
sg14
F594.0
sg15
I0
sg16
g29
sg17
I0
sg18
I0
sg19
I0
sg20
I759557
sg21
g29
sg22
I0
sg23
I0
sg24
I0
sg25
F0.0
sg26
I759557
ssS'KOENIG MARK E'
p397
(dp398
g3
I2374
sg4
I0
sg5
I127017
sg6
I01
sg7
I300000
sg8
S'mark.koenig@enron.com'
p399
sg10
I53
sg11
I0
sg12
F0.02232518955349621
sg13
I0
sg14
F2271.0
sg15
I0
sg16
I61
sg17
I150458
sg18
I0
sg19
I700000
sg20
I1920055
sg21
I15
sg22
I1248318
sg23
I309946
sg24
I1587421
sg25
F0.2459016393442623
sg26
I671737
ssS'SAVAGE FRANK'
p400
(dp401
g3
g29
sg4
I0
sg5
I0
sg6
I00
sg7
I0
sg8
g29
sg10
g29
sg11
I-121284
sg12
F0.0
sg13
I0
sg14
F594.0
sg15
I0
sg16
g29
sg17
I0
sg18
I125034
sg19
I0
sg20
I0
sg21
g29
sg22
I0
sg23
I0
sg24
I3750
sg25
F0.0
sg26
I0
ssS'IZZO LAWRENCE L'
p402
(dp403
g3
I496
sg4
I0
sg5
I28093
sg6
I00
sg7
I312500
sg8
S'larry.izzo@enron.com'
p404
sg10
I28
sg11
I0
sg12
F0.056451612903225805
sg13
I0
sg14
F437.0
sg15
I0
sg16
I19
sg17
I1553729
sg18
I0
sg19
I0
sg20
I5819980
sg21
I5
sg22
I3654808
sg23
I85274
sg24
I1979596
sg25
F0.2631578947368421
sg26
I2165172
ssS'TILNEY ELIZABETH A'
p405
(dp406
g3
I460
sg4
I0
sg5
I0
sg6
I00
sg7
I275000
sg8
S'elizabeth.tilney@enron.com'
p407
sg10
I10
sg11
I-575000
sg12
F0.021739130434782608
sg13
I0
sg14
F379.0
sg15
I0
sg16
I19
sg17
I152055
sg18
I0
sg19
I300000
sg20
I1168042
sg21
I11
sg22
I576792
sg23
I247338
sg24
I399393
sg25
F0.5789473684210527
sg26
I591250
ssS'MARTIN AMANDA K'
p408
(dp409
g3
I1522
sg4
I85430
sg5
I8211
sg6
I00
sg7
I5145434
sg8
S'a..martin@enron.com'
p410
sg10
I8
sg11
I0
sg12
F0.005256241787122208
sg13
I0
sg14
F477.0
sg15
I0
sg16
I230
sg17
I2818454
sg18
I0
sg19
I0
sg20
I2070306
sg21
I0
sg22
I0
sg23
I349487
sg24
I8407016
sg25
F0.0
sg26
I2070306
ssS'BUY RICHARD B'
p411
(dp412
g3
I3523
sg4
I649584
sg5
I0
sg6
I00
sg7
I769862
sg8
S'rick.buy@enron.com'
p413
sg10
I156
sg11
I-694862
sg12
F0.04428044280442804
sg13
I0
sg14
F2333.0
sg15
I0
sg16
I1053
sg17
I400572
sg18
I0
sg19
I900000
sg20
I3444470
sg21
I71
sg22
I901657
sg23
I330546
sg24
I2355702
sg25
F0.06742640075973409
sg26
I2542813
ssS'GRAMM WENDY L'
p414
(dp415
g3
g29
sg4
I0
sg5
I0
sg6
I00
sg7
I0
sg8
g29
sg10
g29
sg11
I0
sg12
F0.0
sg13
I0
sg14
F594.0
sg15
I0
sg16
g29
sg17
I0
sg18
I119292
sg19
I0
sg20
I0
sg21
g29
sg22
I0
sg23
I0
sg24
I119292
sg25
F0.0
sg26
I0
ssS'CAUSEY RICHARD A'
p416
(dp417
g3
I1892
sg4
I0
sg5
I30674
sg6
I01
sg7
I350000
sg8
S'richard.causey@enron.com'
p418
sg10
I58
sg11
I-235000
sg12
F0.0306553911205074
sg13
I0
sg14
F1585.0
sg15
I0
sg16
I49
sg17
I307895
sg18
I0
sg19
I1000000
sg20
I2502063
sg21
I12
sg22
I2502063
sg23
I415189
sg24
I1868758
sg25
F0.24489795918367346
sg26
I0
ssS'TAYLOR MITCHELL S'
p419
(dp420
g3
I533
sg4
I227449
sg5
I0
sg6
I00
sg7
I0
sg8
S'mitchell.taylor@enron.com'
p421
sg10
I0
sg11
I0
sg12
F0.0
sg13
I0
sg14
F300.0
sg15
I0
sg16
I29
sg17
I0
sg18
I0
sg19
I600000
sg20
I3745048
sg21
I0
sg22
I563798
sg23
I265214
sg24
I1092663
sg25
F0.0
sg26
I3181250
ssS'DONAHUE JR JEFFREY M'
p422
(dp423
g3
I865
sg4
I0
sg5
I96268
sg6
I00
sg7
I0
sg8
S'jeff.donahue@enron.com'
p424
sg10
I188
sg11
I-300000
sg12
F0.21734104046242775
sg13
I0
sg14
F772.0
sg15
I0
sg16
I22
sg17
I891
sg18
I0
sg19
I800000
sg20
I1080988
sg21
I11
sg22
I315068
sg23
I278601
sg24
I875760
sg25
F0.5
sg26
I765920
ssS'GLISAN JR BEN F'
p425
(dp426
g3
I873
sg4
I0
sg5
I125978
sg6
I01
sg7
I71023
sg8
S'ben.glisan@enron.com'
p427
sg10
I52
sg11
I0
sg12
F0.05956471935853379
sg13
I0
sg14
F874.0
sg15
I0
sg16
I16
sg17
I200308
sg18
I0
sg19
I600000
sg20
I778546
sg21
I6
sg22
I393818
sg23
I274975
sg24
I1272284
sg25
F0.375
sg26
I384728
ss.